Certificate:
    Data:
        Version: 3 (0x2)
        Serial Number: 12 (0xc)
        Signature Algorithm: sha256WithRSAEncryption
        Issuer: OU=Demo Root CA, C=CN, ST=GuangDong, O=Demo Ca Organization, CN=Demo Root CA
        Validity
            Not Before: Sep 24 14:09:06 2023 GMT
            Not After : Sep 21 14:09:06 2033 GMT
        Subject: C=CN, ST=GuangDong, O=Demo Server Organization, OU=Demo Server, CN=localhost
        Subject Public Key Info:
            Public Key Algorithm: rsaEncryption
                RSA Public-Key: (4096 bit)
                Modulus:
                    00:e1:66:87:0d:11:95:ca:ab:99:e1:12:10:63:89:
                    a8:30:5c:c7:1e:76:9a:88:7f:91:84:04:c9:6b:ce:
                    09:9d:7c:cd:c0:14:5e:a0:65:71:5e:96:ee:c4:c0:
                    0d:1f:ab:c5:9c:c4:1e:a4:26:d1:eb:ee:5f:a2:11:
                    e9:d8:63:c8:25:46:7f:eb:b2:35:87:4a:6e:e2:e7:
                    35:ab:fc:81:44:93:24:c3:16:7a:c8:b6:cf:18:dd:
                    77:95:37:41:6e:1f:0d:d6:16:9a:2f:83:89:da:4d:
                    9a:54:ff:3b:0a:1e:f4:f2:83:b3:7b:cb:40:99:ef:
                    8e:e5:ef:d4:fc:ae:a7:1a:67:11:60:4e:ba:e2:a7:
                    07:e0:72:ac:00:e5:f5:88:d7:52:f4:0c:fd:ff:5a:
                    41:2b:ea:cb:55:26:63:19:55:b9:e5:ed:2e:b5:ce:
                    63:b3:21:48:4b:53:5a:72:c1:8e:72:e9:14:ed:f7:
                    b7:a4:05:aa:69:ff:e8:b0:6e:c5:86:4a:b4:0a:d6:
                    6a:f0:11:f3:cb:90:d2:d7:50:20:94:75:03:83:cc:
                    23:45:dd:2c:b8:7d:42:b9:40:15:85:57:90:b9:66:
                    a0:07:38:9d:66:ff:fe:80:19:2f:e8:68:ff:61:6d:
                    eb:84:51:47:fc:7d:5e:d4:53:44:9c:b4:2c:14:a5:
                    eb:8f:54:0e:0f:f7:fd:09:a2:95:d8:12:8d:14:0e:
                    7a:dd:6e:40:c4:1a:0a:f6:b9:4b:b8:ca:a8:e5:88:
                    41:a5:bc:a6:37:b8:3e:29:27:74:58:8f:88:fb:f2:
                    22:26:f1:42:0c:26:63:05:9e:2f:c3:b7:d6:a3:8c:
                    e3:2c:38:ab:dd:47:9c:6b:c7:a4:01:d3:c2:38:b6:
                    78:33:81:87:55:36:1d:06:59:29:29:98:1b:3f:58:
                    f4:78:0c:06:a8:7b:af:4c:15:cb:d0:1b:c2:89:93:
                    82:d1:c9:e1:8d:7b:e3:d9:9d:6e:0e:0c:77:53:14:
                    a4:d3:eb:8c:a8:6b:ca:0c:3e:84:ba:bc:3e:4f:76:
                    88:96:ab:32:56:6b:c8:ae:2b:59:1f:2f:1e:7f:bd:
                    3f:99:46:73:f3:68:2e:da:2a:c8:84:7d:65:f5:a6:
                    f2:25:5e:54:72:0e:fd:1a:f6:56:ee:47:b1:02:04:
                    17:10:c2:6d:24:09:8a:16:75:6b:9a:83:ca:ea:41:
                    cb:52:1c:27:29:bb:80:cd:33:24:00:82:d1:2a:44:
                    b0:a6:50:35:a2:99:cc:8b:11:7d:34:e1:2e:03:32:
                    af:d5:cc:bc:00:ac:ac:06:b0:9a:83:de:61:19:a4:
                    94:94:5c:02:c8:40:84:cb:b1:14:b7:a7:8b:66:ba:
                    12:38:29
                Exponent: 65537 (0x10001)
        X509v3 extensions:
            X509v3 Basic Constraints: 
                CA:TRUE
            X509v3 Key Usage: 
                Digital Signature, Non Repudiation, Key Encipherment
            X509v3 Extended Key Usage: 
                TLS Web Server Authentication, TLS Web Client Authentication
            X509v3 Subject Alternative Name: 
                DNS:www.localhost, DNS:web.localhost, DNS:app.localhost
    Signature Algorithm: sha256WithRSAEncryption
         ad:92:59:80:b6:61:41:27:4b:f5:40:0a:f9:6b:fb:ca:d8:f6:
         e2:f8:f7:7c:fe:d0:d3:53:0f:8c:3d:5a:02:fe:d2:51:a9:1a:
         d7:23:16:3b:de:47:23:07:8f:18:8f:3c:ce:bc:11:a6:9f:d8:
         f3:7a:4a:96:36:fd:63:1f:87:f3:b4:03:f4:60:29:a4:e4:1e:
         1c:f2:69:54:38:d4:45:67:dd:4c:6a:e5:1f:6d:f3:42:ef:98:
         ac:2c:55:a4:dc:95:c5:41:95:ae:09:65:d1:bd:8c:0d:21:d3:
         c5:bc:ea:ac:37:a7:0b:92:03:8c:81:91:07:b7:99:79:31:0c:
         dc:27:6e:52:f7:31:b9:ae:bf:28:c3:73:85:c5:52:1b:a1:c5:
         89:41:63:c4:5d:bb:5f:d8:3f:b2:aa:c9:0d:1c:1e:19:1c:b5:
         d8:aa:f5:a9:5d:58:49:52:4d:4c:ca:64:cb:90:2e:2c:2d:cd:
         48:5c:35:2d:8f:16:6b:e3:c8:df:c3:8b:48:5b:5b:45:03:00:
         db:a5:5c:27:8b:da:a5:c5:0a:5c:c1:a8:94:11:84:07:22:ce:
         f6:cd:a4:cd:24:b1:97:23:27:43:f8:7d:a7:ad:ba:9e:6a:62:
         b3:0b:55:1c:86:4d:d0:0d:04:22:d9:49:4d:65:5c:b2:55:e8:
         ce:15:64:c4
-----BEGIN CERTIFICATE-----
MIIEyzCCA7OgAwIBAgIBDDANBgkqhkiG9w0BAQsFADBuMRUwEwYDVQQLDAxEZW1v
IFJvb3QgQ0ExCzAJBgNVBAYTAkNOMRIwEAYDVQQIDAlHdWFuZ0RvbmcxHTAbBgNV
BAoMFERlbW8gQ2EgT3JnYW5pemF0aW9uMRUwEwYDVQQDDAxEZW1vIFJvb3QgQ0Ew
HhcNMjMwOTI0MTQwOTA2WhcNMzMwOTIxMTQwOTA2WjBuMQswCQYDVQQGEwJDTjES
MBAGA1UECAwJR3VhbmdEb25nMSEwHwYDVQQKDBhEZW1vIFNlcnZlciBPcmdhbml6
YXRpb24xFDASBgNVBAsMC0RlbW8gU2VydmVyMRIwEAYDVQQDDAlsb2NhbGhvc3Qw
ggIiMA0GCSqGSIb3DQEBAQUAA4ICDwAwggIKAoICAQDhZocNEZXKq5nhEhBjiagw
XMcedpqIf5GEBMlrzgmdfM3AFF6gZXFelu7EwA0fq8WcxB6kJtHr7l+iEenYY8gl
Rn/rsjWHSm7i5zWr/IFEkyTDFnrIts8Y3XeVN0FuHw3WFpovg4naTZpU/zsKHvTy
g7N7y0CZ747l79T8rqcaZxFgTrripwfgcqwA5fWI11L0DP3/WkEr6stVJmMZVbnl
7S61zmOzIUhLU1pywY5y6RTt97ekBapp/+iwbsWGSrQK1mrwEfPLkNLXUCCUdQOD
zCNF3Sy4fUK5QBWFV5C5ZqAHOJ1m//6AGS/oaP9hbeuEUUf8fV7UU0SctCwUpeuP
VA4P9/0JopXYEo0UDnrdbkDEGgr2uUu4yqjliEGlvKY3uD4pJ3RYj4j78iIm8UIM
JmMFni/Dt9ajjOMsOKvdR5xrx6QB08I4tngzgYdVNh0GWSkpmBs/WPR4DAaoe69M
FcvQG8KJk4LRyeGNe+PZnW4ODHdTFKTT64yoa8oMPoS6vD5PdoiWqzJWa8iuK1kf
Lx5/vT+ZRnPzaC7aKsiEfWX1pvIlXlRyDv0a9lbuR7ECBBcQwm0kCYoWdWuag8rq
QctSHCcpu4DNMyQAgtEqRLCmUDWimcyLEX004S4DMq/VzLwArKwGsJqD3mEZpJSU
XALIQITLsRS3p4tmuhI4KQIDAQABo3QwcjAMBgNVHRMEBTADAQH/MAsGA1UdDwQE
AwIF4DAdBgNVHSUEFjAUBggrBgEFBQcDAQYIKwYBBQUHAwIwNgYDVR0RBC8wLYIN
d3d3LmxvY2FsaG9zdIINd2ViLmxvY2FsaG9zdIINYXBwLmxvY2FsaG9zdDANBgkq
hkiG9w0BAQsFAAOCAQEArZJZgLZhQSdL9UAK+Wv7ytj24vj3fP7Q01MPjD1aAv7S
Uaka1yMWO95HIwePGI88zrwRpp/Y83pKljb9Yx+H87QD9GAppOQeHPJpVDjURWfd
TGrlH23zQu+YrCxVpNyVxUGVrgll0b2MDSHTxbzqrDenC5IDjIGRB7eZeTEM3Cdu
Uvcxua6/KMNzhcVSG6HFiUFjxF27X9g/sqrJDRweGRy12Kr1qV1YSVJNTMpky5Au
LC3NSFw1LY8Wa+PI38OLSFtbRQMA26VcJ4vapcUKXMGolBGEByLO9s2kzSSxlyMn
Q/h9p626nmpiswtVHIZN0A0EItlJTWVcslXozhVkxA==
-----END CERTIFICATE-----
